target datalayout = "e-m:e-p270:32:32-p271:32:32-p272:64:64-i64:64-i128:128-f80:128-n8:16:32:64-S128"
target triple = "x86_64-pc-linux-gnu"

%struct.JNINativeInterface_ = type { ptr, ptr, ptr, ptr, ptr, ptr, ptr, ptr, ptr, ptr, ptr, ptr, ptr, ptr, ptr, ptr, ptr, ptr, ptr, ptr, ptr, ptr, ptr, ptr, ptr, ptr, ptr, ptr, ptr, ptr, ptr, ptr, ptr, ptr, ptr, ptr, ptr, ptr, ptr, ptr, ptr, ptr, ptr, ptr, ptr, ptr, ptr, ptr, ptr, ptr, ptr, ptr, ptr, ptr, ptr, ptr, ptr, ptr, ptr, ptr, ptr, ptr, ptr, ptr, ptr, ptr, ptr, ptr, ptr, ptr, ptr, ptr, ptr, ptr, ptr, ptr, ptr, ptr, ptr, ptr, ptr, ptr, ptr, ptr, ptr, ptr, ptr, ptr, ptr, ptr, ptr, ptr, ptr, ptr, ptr, ptr, ptr, ptr, ptr, ptr, ptr, ptr, ptr, ptr, ptr, ptr, ptr, ptr, ptr, ptr, ptr, ptr, ptr, ptr, ptr, ptr, ptr, ptr, ptr, ptr, ptr, ptr, ptr, ptr, ptr, ptr, ptr, ptr, ptr, ptr, ptr, ptr, ptr, ptr, ptr, ptr, ptr, ptr, ptr, ptr, ptr, ptr, ptr, ptr, ptr, ptr, ptr, ptr, ptr, ptr, ptr, ptr, ptr, ptr, ptr, ptr, ptr, ptr, ptr, ptr, ptr, ptr, ptr, ptr, ptr, ptr, ptr, ptr, ptr, ptr, ptr, ptr, ptr, ptr, ptr, ptr, ptr, ptr, ptr, ptr, ptr, ptr, ptr, ptr, ptr, ptr, ptr, ptr, ptr, ptr, ptr, ptr, ptr, ptr, ptr, ptr, ptr, ptr, ptr, ptr, ptr, ptr, ptr, ptr, ptr, ptr, ptr, ptr, ptr, ptr, ptr, ptr, ptr, ptr, ptr, ptr, ptr, ptr, ptr, ptr, ptr, ptr, ptr, ptr, ptr, ptr, ptr, ptr, ptr, ptr, ptr, ptr, ptr, ptr, ptr }
%struct.BufImageS_t = type { ptr, %struct.RasterS_t, %struct.ColorModelS_t, %struct.HintS_t, i32 }
%struct.RasterS_t = type { ptr, ptr, ptr, %struct.SPPSampleModelS_t, ptr, i32, i32, i32, i32, i32, i32, i32, i32, i32, i32, i32, i32, i32, i32, i32, i32, i32 }
%struct.SPPSampleModelS_t = type { [32 x i32], [32 x i32], [32 x i32], i32, i32 }
%struct.ColorModelS_t = type { ptr, ptr, ptr, ptr, i32, i32, i32, i32, i32, i32, i32, i32, i32, i32, i32, i32 }
%struct.HintS_t = type { ptr, i32, i32, i32, i32, i32, i32, i32, i32, i32 }

@.str.23 = private unnamed_addr constant [14 x i8] c"Out of Memory\00", align 1
@g_BImgSetRGBMID = external global ptr, align 8

; Function Attrs: nounwind uwtable
define internal i32 @cvtDefaultToCustom(ptr noundef %0, ptr noundef %1, i32 noundef %2, ptr noundef %3) #0 {
  %5 = alloca i32, align 4
  %6 = alloca ptr, align 8
  %7 = alloca ptr, align 8
  %8 = alloca i32, align 4
  %9 = alloca ptr, align 8
  %10 = alloca ptr, align 8
  %11 = alloca i32, align 4
  %12 = alloca i32, align 4
  %13 = alloca i32, align 4
  %14 = alloca ptr, align 8
  %15 = alloca ptr, align 8
  %16 = alloca ptr, align 8
  %17 = alloca i32, align 4
  %18 = alloca i32, align 4
  %19 = alloca i32, align 4
  store ptr %0, ptr %6, align 8
  store ptr %1, ptr %7, align 8
  store i32 %2, ptr %8, align 4
  store ptr %3, ptr %9, align 8
  %20 = load ptr, ptr %7, align 8
  %21 = getelementptr inbounds %struct.BufImageS_t, ptr %20, i32 0, i32 1
  store ptr %21, ptr %10, align 8
  %22 = load ptr, ptr %10, align 8
  %23 = getelementptr inbounds %struct.RasterS_t, ptr %22, i32 0, i32 5
  %24 = load i32, ptr %23, align 8
  store i32 %24, ptr %11, align 4
  %25 = load ptr, ptr %10, align 8
  %26 = getelementptr inbounds %struct.RasterS_t, ptr %25, i32 0, i32 6
  %27 = load i32, ptr %26, align 4
  store i32 %27, ptr %12, align 4
  store ptr null, ptr %14, align 8
  %28 = load ptr, ptr %9, align 8
  store ptr %28, ptr %16, align 8
  %29 = load i32, ptr %12, align 4
  %30 = icmp sgt i32 %29, 10
  br i1 %30, label %31, label %32

31:                                               ; preds = %4
  br label %34

32:                                               ; preds = %4
  %33 = load i32, ptr %12, align 4
  br label %34

34:                                               ; preds = %32, %31
  %35 = phi i32 [ 10, %31 ], [ %33, %32 ]
  store i32 %35, ptr %17, align 4
  %36 = load i32, ptr %11, align 4
  %37 = mul nsw i32 %36, 4
  store i32 %37, ptr %18, align 4
  store i32 0, ptr %19, align 4
  %38 = load i32, ptr %17, align 4
  %39 = icmp sgt i32 %38, 0
  br i1 %39, label %40, label %48

40:                                               ; preds = %34
  %41 = load i32, ptr %18, align 4
  %42 = icmp sge i32 %41, 0
  br i1 %42, label %43, label %48

43:                                               ; preds = %40
  %44 = load i32, ptr %17, align 4
  %45 = sdiv i32 2147483647, %44
  %46 = load i32, ptr %18, align 4
  %47 = icmp sgt i32 %45, %46
  br i1 %47, label %49, label %48

48:                                               ; preds = %43, %40, %34
  store i32 -1, ptr %5, align 4
  br label %160

49:                                               ; preds = %43
  %50 = load i32, ptr %17, align 4
  %51 = load i32, ptr %18, align 4
  %52 = mul nsw i32 %50, %51
  store i32 %52, ptr %19, align 4
  %53 = load ptr, ptr %6, align 8
  %54 = load ptr, ptr %53, align 8
  %55 = getelementptr inbounds %struct.JNINativeInterface_, ptr %54, i32 0, i32 179
  %56 = load ptr, ptr %55, align 8
  %57 = load ptr, ptr %6, align 8
  %58 = load i32, ptr %19, align 4
  %59 = call ptr %56(ptr noundef %57, i32 noundef %58)
  store ptr %59, ptr %14, align 8
  %60 = load ptr, ptr %14, align 8
  %61 = icmp eq ptr %60, null
  br i1 %61, label %62, label %69

62:                                               ; preds = %49
  %63 = load ptr, ptr %6, align 8
  %64 = load ptr, ptr %63, align 8
  %65 = getelementptr inbounds %struct.JNINativeInterface_, ptr %64, i32 0, i32 17
  %66 = load ptr, ptr %65, align 8
  %67 = load ptr, ptr %6, align 8
  call void %66(ptr noundef %67)
  %68 = load ptr, ptr %6, align 8
  call void @JNU_ThrowOutOfMemoryError(ptr noundef %68, ptr noundef @.str.23)
  store i32 -1, ptr %5, align 4
  br label %160

69:                                               ; preds = %49
  store i32 0, ptr %13, align 4
  br label %70

70:                                               ; preds = %149, %69
  %71 = load i32, ptr %13, align 4
  %72 = load i32, ptr %12, align 4
  %73 = icmp slt i32 %71, %72
  br i1 %73, label %74, label %153

74:                                               ; preds = %70
  %75 = load i32, ptr %13, align 4
  %76 = load i32, ptr %17, align 4
  %77 = add nsw i32 %75, %76
  %78 = load i32, ptr %12, align 4
  %79 = icmp sgt i32 %77, %78
  br i1 %79, label %80, label %87

80:                                               ; preds = %74
  %81 = load i32, ptr %12, align 4
  %82 = load i32, ptr %13, align 4
  %83 = sub nsw i32 %81, %82
  store i32 %83, ptr %17, align 4
  %84 = load i32, ptr %17, align 4
  %85 = load i32, ptr %18, align 4
  %86 = mul nsw i32 %84, %85
  store i32 %86, ptr %19, align 4
  br label %87

87:                                               ; preds = %80, %74
  %88 = load ptr, ptr %6, align 8
  %89 = load ptr, ptr %88, align 8
  %90 = getelementptr inbounds %struct.JNINativeInterface_, ptr %89, i32 0, i32 222
  %91 = load ptr, ptr %90, align 8
  %92 = load ptr, ptr %6, align 8
  %93 = load ptr, ptr %14, align 8
  %94 = call ptr %91(ptr noundef %92, ptr noundef %93, ptr noundef null)
  store ptr %94, ptr %15, align 8
  %95 = load ptr, ptr %15, align 8
  %96 = icmp eq ptr %95, null
  br i1 %96, label %97, label %104

97:                                               ; preds = %87
  %98 = load ptr, ptr %6, align 8
  %99 = load ptr, ptr %98, align 8
  %100 = getelementptr inbounds %struct.JNINativeInterface_, ptr %99, i32 0, i32 23
  %101 = load ptr, ptr %100, align 8
  %102 = load ptr, ptr %6, align 8
  %103 = load ptr, ptr %14, align 8
  call void %101(ptr noundef %102, ptr noundef %103)
  store i32 -1, ptr %5, align 4
  br label %160

104:                                              ; preds = %87
  %105 = load ptr, ptr %15, align 8
  %106 = load ptr, ptr %16, align 8
  %107 = load i32, ptr %19, align 4
  %108 = sext i32 %107 to i64
  call void @llvm.memcpy.p0.p0.i64(ptr align 4 %105, ptr align 1 %106, i64 %108, i1 false)
  %109 = load i32, ptr %19, align 4
  %110 = load ptr, ptr %16, align 8
  %111 = sext i32 %109 to i64
  %112 = getelementptr inbounds i8, ptr %110, i64 %111
  store ptr %112, ptr %16, align 8
  %113 = load ptr, ptr %6, align 8
  %114 = load ptr, ptr %113, align 8
  %115 = getelementptr inbounds %struct.JNINativeInterface_, ptr %114, i32 0, i32 223
  %116 = load ptr, ptr %115, align 8
  %117 = load ptr, ptr %6, align 8
  %118 = load ptr, ptr %14, align 8
  %119 = load ptr, ptr %15, align 8
  call void %116(ptr noundef %117, ptr noundef %118, ptr noundef %119, i32 noundef 0)
  %120 = load ptr, ptr %6, align 8
  %121 = load ptr, ptr %120, align 8
  %122 = getelementptr inbounds %struct.JNINativeInterface_, ptr %121, i32 0, i32 61
  %123 = load ptr, ptr %122, align 8
  %124 = load ptr, ptr %6, align 8
  %125 = load ptr, ptr %7, align 8
  %126 = getelementptr inbounds %struct.BufImageS_t, ptr %125, i32 0, i32 0
  %127 = load ptr, ptr %126, align 8
  %128 = load ptr, ptr @g_BImgSetRGBMID, align 8
  %129 = load i32, ptr %13, align 4
  %130 = load i32, ptr %11, align 4
  %131 = load i32, ptr %17, align 4
  %132 = load ptr, ptr %14, align 8
  %133 = load i32, ptr %11, align 4
  call void (ptr, ptr, ptr, ...) %123(ptr noundef %124, ptr noundef %127, ptr noundef %128, i32 noundef 0, i32 noundef %129, i32 noundef %130, i32 noundef %131, ptr noundef %132, i32 noundef 0, i32 noundef %133)
  %134 = load ptr, ptr %6, align 8
  %135 = load ptr, ptr %134, align 8
  %136 = getelementptr inbounds %struct.JNINativeInterface_, ptr %135, i32 0, i32 15
  %137 = load ptr, ptr %136, align 8
  %138 = load ptr, ptr %6, align 8
  %139 = call ptr %137(ptr noundef %138)
  %140 = icmp ne ptr %139, null
  br i1 %140, label %141, label %148

141:                                              ; preds = %104
  %142 = load ptr, ptr %6, align 8
  %143 = load ptr, ptr %142, align 8
  %144 = getelementptr inbounds %struct.JNINativeInterface_, ptr %143, i32 0, i32 23
  %145 = load ptr, ptr %144, align 8
  %146 = load ptr, ptr %6, align 8
  %147 = load ptr, ptr %14, align 8
  call void %145(ptr noundef %146, ptr noundef %147)
  store i32 -1, ptr %5, align 4
  br label %160

148:                                              ; preds = %104
  br label %149

149:                                              ; preds = %148
  %150 = load i32, ptr %17, align 4
  %151 = load i32, ptr %13, align 4
  %152 = add nsw i32 %151, %150
  store i32 %152, ptr %13, align 4
  br label %70, !llvm.loop !114

153:                                              ; preds = %70
  %154 = load ptr, ptr %6, align 8
  %155 = load ptr, ptr %154, align 8
  %156 = getelementptr inbounds %struct.JNINativeInterface_, ptr %155, i32 0, i32 23
  %157 = load ptr, ptr %156, align 8
  %158 = load ptr, ptr %6, align 8
  %159 = load ptr, ptr %14, align 8
  call void %157(ptr noundef %158, ptr noundef %159)
  store i32 0, ptr %5, align 4
  br label %160

160:                                              ; preds = %153, %141, %97, %62, %48
  %161 = load i32, ptr %5, align 4
  ret i32 %161
}