; Function Attrs: nounwind uwtable
define internal fastcc range(i32 -1, 1) i32 @cvtDefaultToCustom(ptr noundef %0, ptr nocapture noundef readonly %1, ptr nocapture noundef readonly %2) unnamed_addr #0 {
  %4 = getelementptr inbounds i8, ptr %1, i64 432
  %5 = load i32, ptr %4, align 8
  %6 = getelementptr inbounds i8, ptr %1, i64 436
  %7 = load i32, ptr %6, align 4
  %8 = tail call i32 @llvm.smin.i32(i32 %7, i32 10)
  %9 = shl nsw i32 %5, 2
  %10 = icmp sgt i32 %7, 0
  %11 = icmp sgt i32 %5, -1
  %or.cond = select i1 %10, i1 %11, i1 false
  br i1 %or.cond, label %12, label %64

12:                                               ; preds = %3
  %13 = udiv i32 2147483647, %8
  %14 = icmp sgt i32 %13, %9
  br i1 %14, label %15, label %64

15:                                               ; preds = %12
  %16 = mul nuw nsw i32 %8, %9
  %17 = load ptr, ptr %0, align 8
  %18 = getelementptr inbounds i8, ptr %17, i64 1432
  %19 = load ptr, ptr %18, align 8
  %20 = tail call ptr %19(ptr noundef nonnull %0, i32 noundef %16) #13
  %21 = icmp eq ptr %20, null
  br i1 %21, label %22, label %.lr.ph

22:                                               ; preds = %15
  %23 = load ptr, ptr %0, align 8
  %24 = getelementptr inbounds i8, ptr %23, i64 136
  %25 = load ptr, ptr %24, align 8
  tail call void %25(ptr noundef nonnull %0) #13
  tail call void @JNU_ThrowOutOfMemoryError(ptr noundef nonnull %0, ptr noundef nonnull @.str.23) #13
  br label %64

.lr.ph:                                           ; preds = %15, %57
  %.077 = phi i32 [ %.1, %57 ], [ %16, %15 ]
  %.06576 = phi i32 [ %.166, %57 ], [ %8, %15 ]
  %.06775 = phi ptr [ %58, %57 ], [ %2, %15 ]
  %.06874 = phi i32 [ %59, %57 ], [ 0, %15 ]
  %26 = add nsw i32 %.06576, %.06874
  %27 = icmp sgt i32 %26, %7
  %28 = sub nsw i32 %7, %.06874
  %29 = mul nsw i32 %28, %9
  %.166 = select i1 %27, i32 %28, i32 %.06576
  %.1 = select i1 %27, i32 %29, i32 %.077
  %30 = load ptr, ptr %0, align 8
  %31 = getelementptr inbounds i8, ptr %30, i64 1776
  %32 = load ptr, ptr %31, align 8
  %33 = tail call ptr %32(ptr noundef nonnull %0, ptr noundef nonnull %20, ptr noundef null) #13
  %34 = icmp eq ptr %33, null
  br i1 %34, label %35, label %39

35:                                               ; preds = %.lr.ph
  %36 = load ptr, ptr %0, align 8
  %37 = getelementptr inbounds i8, ptr %36, i64 184
  %38 = load ptr, ptr %37, align 8
  tail call void %38(ptr noundef nonnull %0, ptr noundef nonnull %20) #13
  br label %64

39:                                               ; preds = %.lr.ph
  %40 = sext i32 %.1 to i64
  tail call void @llvm.memcpy.p0.p0.i64(ptr nonnull align 4 %33, ptr align 1 %.06775, i64 %40, i1 false)
  %41 = load ptr, ptr %0, align 8
  %42 = getelementptr inbounds i8, ptr %41, i64 1784
  %43 = load ptr, ptr %42, align 8
  tail call void %43(ptr noundef nonnull %0, ptr noundef nonnull %20, ptr noundef nonnull %33, i32 noundef 0) #13
  %44 = load ptr, ptr %0, align 8
  %45 = getelementptr inbounds i8, ptr %44, i64 488
  %46 = load ptr, ptr %45, align 8
  %47 = load ptr, ptr %1, align 8
  %48 = load ptr, ptr @g_BImgSetRGBMID, align 8
  tail call void (ptr, ptr, ptr, ...) %46(ptr noundef nonnull %0, ptr noundef %47, ptr noundef %48, i32 noundef 0, i32 noundef %.06874, i32 noundef %5, i32 noundef %.166, ptr noundef nonnull %20, i32 noundef 0, i32 noundef %5) #13
  %49 = load ptr, ptr %0, align 8
  %50 = getelementptr inbounds i8, ptr %49, i64 120
  %51 = load ptr, ptr %50, align 8
  %52 = tail call ptr %51(ptr noundef nonnull %0) #13
  %.not = icmp eq ptr %52, null
  br i1 %.not, label %57, label %53

53:                                               ; preds = %39
  %54 = load ptr, ptr %0, align 8
  %55 = getelementptr inbounds i8, ptr %54, i64 184
  %56 = load ptr, ptr %55, align 8
  tail call void %56(ptr noundef nonnull %0, ptr noundef nonnull %20) #13
  br label %64

57:                                               ; preds = %39
  %58 = getelementptr inbounds i8, ptr %.06775, i64 %40
  %59 = add nsw i32 %.166, %.06874
  %60 = icmp slt i32 %59, %7
  br i1 %60, label %.lr.ph, label %._crit_edge, !llvm.loop !117

._crit_edge:                                      ; preds = %57
  %61 = load ptr, ptr %0, align 8
  %62 = getelementptr inbounds i8, ptr %61, i64 184
  %63 = load ptr, ptr %62, align 8
  tail call void %63(ptr noundef nonnull %0, ptr noundef nonnull %20) #13
  br label %64

64:                                               ; preds = %3, %12, %._crit_edge, %53, %35, %22
  %.064 = phi i32 [ -1, %22 ], [ -1, %35 ], [ -1, %53 ], [ 0, %._crit_edge ], [ -1, %12 ], [ -1, %3 ]
  ret i32 %.064
}